target datalayout = "e-m:e-p270:32:32-p271:32:32-p272:64:64-i64:64-i128:128-f80:128-n8:16:32:64-S128"
target triple = "x86_64-pc-linux-gnu"

%struct._lv_circle_buf_t = type { %struct._lv_array_t, i32, i32, i8 }
%struct._lv_array_t = type { ptr, i32, i32, i32, i8 }

; Function Attrs: nounwind uwtable
define i32 @lv_circle_buf_capacity(ptr noundef %0) #0 {
  %2 = alloca ptr, align 8
  store ptr %0, ptr %2, align 8, !tbaa !7
  br label %3

3:                                                ; preds = %1
  %4 = load ptr, ptr %2, align 8, !tbaa !7
  %5 = icmp ne ptr %4, null
  br i1 %5, label %10, label %6

6:                                                ; preds = %3
  br label %7

7:                                                ; preds = %6
  br label %8

8:                                                ; preds = %7
  br label %9

9:                                                ; preds = %8, %9
  br label %9

10:                                               ; preds = %3
  br label %11

11:                                               ; preds = %10
  %12 = load ptr, ptr %2, align 8, !tbaa !7
  %13 = getelementptr inbounds nuw %struct._lv_circle_buf_t, ptr %12, i32 0, i32 0
  %14 = call i32 @lv_array_capacity(ptr noundef %13)
  ret i32 %14
}

; Function Attrs: nounwind uwtable
define i32 @lv_circle_buf_size(ptr noundef %0) #0 {
  %2 = alloca ptr, align 8
  store ptr %0, ptr %2, align 8, !tbaa !7
  br label %3

3:                                                ; preds = %1
  %4 = load ptr, ptr %2, align 8, !tbaa !7
  %5 = icmp ne ptr %4, null
  br i1 %5, label %10, label %6

6:                                                ; preds = %3
  br label %7

7:                                                ; preds = %6
  br label %8

8:                                                ; preds = %7
  br label %9

9:                                                ; preds = %8, %9
  br label %9

10:                                               ; preds = %3
  br label %11

11:                                               ; preds = %10
  %12 = load ptr, ptr %2, align 8, !tbaa !7
  %13 = getelementptr inbounds nuw %struct._lv_circle_buf_t, ptr %12, i32 0, i32 2
  %14 = load i32, ptr %13, align 4, !tbaa !15
  %15 = load ptr, ptr %2, align 8, !tbaa !7
  %16 = getelementptr inbounds nuw %struct._lv_circle_buf_t, ptr %15, i32 0, i32 1
  %17 = load i32, ptr %16, align 8, !tbaa !10
  %18 = sub i32 %14, %17
  ret i32 %18
}

; Function Attrs: nounwind uwtable
define i32 @lv_circle_buf_peek_at(ptr noundef %0, i32 noundef %1, ptr noundef %2) #0 {
  %4 = alloca ptr, align 8
  %5 = alloca i32, align 4
  %6 = alloca ptr, align 8
  %7 = alloca i32, align 4
  store ptr %0, ptr %4, align 8, !tbaa !7
  store i32 %1, ptr %5, align 4, !tbaa !3
  store ptr %2, ptr %6, align 8, !tbaa !19
  br label %8

8:                                                ; preds = %3
  %9 = load ptr, ptr %4, align 8, !tbaa !7
  %10 = icmp ne ptr %9, null
  br i1 %10, label %15, label %11

11:                                               ; preds = %8
  br label %12

12:                                               ; preds = %11
  br label %13

13:                                               ; preds = %12
  br label %14

14:                                               ; preds = %13, %14
  br label %14

15:                                               ; preds = %8
  br label %16

16:                                               ; preds = %15
  br label %17

17:                                               ; preds = %16
  %18 = load ptr, ptr %6, align 8, !tbaa !19
  %19 = icmp ne ptr %18, null
  br i1 %19, label %24, label %20

20:                                               ; preds = %17
  br label %21

21:                                               ; preds = %20
  br label %22

22:                                               ; preds = %21
  br label %23

23:                                               ; preds = %22, %23
  br label %23

24:                                               ; preds = %17
  br label %25

25:                                               ; preds = %24
  call void @llvm.lifetime.start.p0(i64 4, ptr %7) #4
  %26 = load i32, ptr %5, align 4, !tbaa !3
  %27 = load ptr, ptr %4, align 8, !tbaa !7
  %28 = call i32 @lv_circle_buf_size(ptr noundef %27)
  %29 = urem i32 %26, %28
  %30 = load ptr, ptr %4, align 8, !tbaa !7
  %31 = getelementptr inbounds nuw %struct._lv_circle_buf_t, ptr %30, i32 0, i32 1
  %32 = load i32, ptr %31, align 8, !tbaa !10
  %33 = add i32 %29, %32
  %34 = load ptr, ptr %4, align 8, !tbaa !7
  %35 = call i32 @lv_circle_buf_capacity(ptr noundef %34)
  %36 = urem i32 %33, %35
  store i32 %36, ptr %7, align 4, !tbaa !3
  %37 = load ptr, ptr %6, align 8, !tbaa !19
  %38 = load ptr, ptr %4, align 8, !tbaa !7
  %39 = getelementptr inbounds nuw %struct._lv_circle_buf_t, ptr %38, i32 0, i32 0
  %40 = load i32, ptr %7, align 4, !tbaa !3
  %41 = call ptr @lv_array_at(ptr noundef %39, i32 noundef %40)
  %42 = load ptr, ptr %4, align 8, !tbaa !7
  %43 = getelementptr inbounds nuw %struct._lv_circle_buf_t, ptr %42, i32 0, i32 0
  %44 = getelementptr inbounds nuw %struct._lv_array_t, ptr %43, i32 0, i32 3
  %45 = load i32, ptr %44, align 8, !tbaa !25
  %46 = zext i32 %45 to i64
  %47 = call ptr @lv_memcpy(ptr noundef %37, ptr noundef %41, i64 noundef %46)
  call void @llvm.lifetime.end.p0(i64 4, ptr %7) #4
  ret i32 1
}

; Function Attrs: nounwind uwtable
define i32 @lv_circle_buf_peek(ptr noundef %0, ptr noundef %1) #0 {
  %3 = alloca ptr, align 8
  %4 = alloca ptr, align 8
  store ptr %0, ptr %3, align 8, !tbaa !7
  store ptr %1, ptr %4, align 8, !tbaa !19
  br label %5

5:                                                ; preds = %2
  %6 = load ptr, ptr %3, align 8, !tbaa !7
  %7 = icmp ne ptr %6, null
  br i1 %7, label %12, label %8

8:                                                ; preds = %5
  br label %9

9:                                                ; preds = %8
  br label %10

10:                                               ; preds = %9
  br label %11

11:                                               ; preds = %10, %11
  br label %11

12:                                               ; preds = %5
  br label %13

13:                                               ; preds = %12
  br label %14

14:                                               ; preds = %13
  %15 = load ptr, ptr %4, align 8, !tbaa !19
  %16 = icmp ne ptr %15, null
  br i1 %16, label %21, label %17

17:                                               ; preds = %14
  br label %18

18:                                               ; preds = %17
  br label %19

19:                                               ; preds = %18
  br label %20

20:                                               ; preds = %19, %20
  br label %20

21:                                               ; preds = %14
  br label %22

22:                                               ; preds = %21
  %23 = load ptr, ptr %3, align 8, !tbaa !7
  %24 = load ptr, ptr %4, align 8, !tbaa !19
  %25 = call i32 @lv_circle_buf_peek_at(ptr noundef %23, i32 noundef 0, ptr noundef %24)
  ret i32 %25
}