; Function Attrs: nounwind uwtable
define noundef i32 @lv_circle_buf_peek(ptr noundef %0, ptr noundef %1) local_unnamed_addr #0 {
  %.not = icmp eq ptr %0, null
  br i1 %.not, label %.preheader, label %3

.preheader:                                       ; preds = %2, %.preheader
  br label %.preheader

3:                                                ; preds = %2
  %.not5 = icmp eq ptr %1, null
  br i1 %.not5, label %.preheader6, label %lv_circle_buf_peek_at.exit

.preheader6:                                      ; preds = %3, %.preheader6
  br label %.preheader6

lv_circle_buf_peek_at.exit:                       ; preds = %3
  %4 = getelementptr inbounds nuw i8, ptr %0, i64 24
  %5 = load i32, ptr %4, align 8, !tbaa !3
  %6 = tail call i32 @lv_array_capacity(ptr noundef nonnull %0) #6
  %7 = urem i32 %5, %6
  %8 = tail call ptr @lv_array_at(ptr noundef nonnull %0, i32 noundef %7) #6
  %9 = getelementptr inbounds nuw i8, ptr %0, i64 16
  %10 = load i32, ptr %9, align 8, !tbaa !20
  %11 = zext i32 %10 to i64
  %12 = tail call ptr @lv_memcpy(ptr noundef nonnull %1, ptr noundef %8, i64 noundef %11) #6
  ret i32 1
}